Certificate:
    Data:
        Version: 3 (0x2)
        Serial Number: 1 (0x1)
        Signature Algorithm: sha256WithRSAEncryption
        Issuer: CN=192.168.1.67@1769764228
        Validity
            Not Before: Jan 30 09:14:34 2026 GMT
            Not After : Jun 17 09:14:34 2053 GMT
        Subject: CN=server
        Subject Public Key Info:
            Public Key Algorithm: rsaEncryption
                Public-Key: (2048 bit)
                Modulus:
                    00:e7:22:0c:8f:11:77:fe:98:86:2a:eb:45:4a:cd:
                    d1:cc:45:f9:0b:ea:12:61:36:39:3b:c3:52:f8:b1:
                    e8:75:0c:78:f8:33:2f:ba:ad:fb:39:2b:1f:3e:46:
                    76:89:cd:83:e4:7d:c5:99:8a:d5:a1:11:54:0d:bf:
                    48:d3:fe:8d:2a:30:c8:9a:9d:2b:e5:2e:de:0b:12:
                    34:2c:0e:fb:a6:ab:28:44:01:fc:a1:38:26:a9:bc:
                    af:7e:65:8a:ac:07:3c:6a:56:fb:2a:e4:44:40:47:
                    35:ff:d5:3b:a5:71:a8:d3:d6:94:8d:3f:75:36:11:
                    74:48:30:23:78:70:7e:51:84:7a:3f:bb:a4:7c:c6:
                    ad:48:78:3c:f9:ad:90:b3:38:53:1d:5b:e9:ad:55:
                    c8:18:86:03:77:da:51:2c:3f:12:4c:dd:2a:02:6e:
                    c5:f6:a3:96:40:0d:e0:94:b8:76:51:d6:a0:f8:8a:
                    c1:13:c2:7b:36:85:13:f3:46:88:c0:12:47:d9:97:
                    95:29:bd:bc:84:dc:c2:52:41:81:33:78:c5:f4:4c:
                    1c:46:b9:43:85:ba:80:f1:3d:2f:65:ef:e2:be:42:
                    44:3c:4a:b5:41:38:70:43:22:11:ca:ec:2e:4f:8a:
                    07:15:11:02:08:19:bb:01:ae:59:b1:80:eb:3e:33:
                    45:bb
                Exponent: 65537 (0x10001)
        X509v3 extensions:
            X509v3 Basic Constraints: 
                CA:FALSE
            X509v3 Subject Key Identifier: 
                17:CA:A4:D6:72:A3:28:55:05:AA:DB:D2:DA:FB:51:7D:4E:9E:93:BA
            X509v3 Authority Key Identifier: 
                keyid:24:42:48:26:B9:68:DE:51:C5:60:94:20:CF:FC:5E:E0:8B:A9:85:5A
                DirName:/CN=192.168.1.67@1769764228
                serial:10:DF:BC:E4:59:AA:7F:DE:94:15:F5:6F:75:97:5F:9F:4F:D5:B4:B5
            X509v3 Extended Key Usage: 
                TLS Web Server Authentication
            X509v3 Key Usage: 
                Digital Signature, Key Encipherment
            X509v3 Subject Alternative Name: 
                IP Address:192.168.1.67, IP Address:10.96.0.1, DNS:kubernetes, DNS:kubernetes.default, DNS:kubernetes.default.svc, DNS:kubernetes.default.svc.cluster, DNS:kubernetes.default.svc.cluster.local
    Signature Algorithm: sha256WithRSAEncryption
    Signature Value:
        2a:60:4f:6e:38:59:3f:80:5a:a1:47:28:35:10:3b:cd:c9:b8:
        4f:0e:e5:64:b3:66:34:17:d8:56:5c:e0:23:71:91:b8:8e:89:
        12:47:4b:54:a5:a1:5d:3f:c5:1a:10:30:49:c1:a6:a7:9d:ce:
        90:12:af:7c:51:fb:7e:f6:31:20:f0:02:5a:6b:5c:f8:58:e2:
        14:b3:5c:ec:00:e7:20:80:99:0e:40:30:78:8b:4d:d0:dd:83:
        ce:e7:e8:88:1a:e1:bf:57:a3:db:ac:3c:33:27:4f:d7:4e:18:
        30:ee:23:b4:aa:eb:29:e4:f9:6b:72:f8:b6:93:6e:65:88:a4:
        30:32:3b:9b:f7:69:69:bb:53:a2:14:e7:a7:98:97:9e:c7:24:
        6d:7e:4d:24:b7:ee:be:cc:7d:8a:d2:54:e4:8c:33:21:ce:38:
        dc:16:11:c7:1c:c5:92:5f:87:ea:4a:a8:c4:09:2f:05:a7:00:
        dd:4c:73:42:36:aa:9c:79:ca:bf:69:4d:f9:86:18:e7:7a:17:
        f5:f2:99:78:54:d9:82:f0:fa:5c:89:74:ad:9c:ca:da:0f:02:
        95:42:29:1a:70:ff:b3:55:95:8b:0e:50:92:bf:b6:28:d2:3d:
        d7:b9:c3:8e:99:1e:44:d7:8b:d1:20:30:9e:c9:3c:59:5b:ff:
        72:91:64:9a
-----BEGIN CERTIFICATE-----
MIID+TCCAuGgAwIBAgIBATANBgkqhkiG9w0BAQsFADAiMSAwHgYDVQQDDBcxOTIu
MTY4LjEuNjdAMTc2OTc2NDIyODAgFw0yNjAxMzAwOTE0MzRaGA8yMDUzMDYxNzA5
MTQzNFowETEPMA0GA1UEAwwGc2VydmVyMIIBIjANBgkqhkiG9w0BAQEFAAOCAQ8A
MIIBCgKCAQEA5yIMjxF3/piGKutFSs3RzEX5C+oSYTY5O8NS+LHodQx4+DMvuq37
OSsfPkZ2ic2D5H3FmYrVoRFUDb9I0/6NKjDImp0r5S7eCxI0LA77pqsoRAH8oTgm
qbyvfmWKrAc8alb7KuREQEc1/9U7pXGo09aUjT91NhF0SDAjeHB+UYR6P7ukfMat
SHg8+a2QszhTHVvprVXIGIYDd9pRLD8STN0qAm7F9qOWQA3glLh2Udag+IrBE8J7
NoUT80aIwBJH2ZeVKb28hNzCUkGBM3jF9EwcRrlDhbqA8T0vZe/ivkJEPEq1QThw
QyIRyuwuT4oHFRECCBm7Aa5ZsYDrPjNFuwIDAQABo4IBRzCCAUMwCQYDVR0TBAIw
ADAdBgNVHQ4EFgQUF8qk1nKjKFUFqtvS2vtRfU6ek7owXQYDVR0jBFYwVIAUJEJI
Jrlo3lHFYJQgz/xe4IuphVqhJqQkMCIxIDAeBgNVBAMMFzE5Mi4xNjguMS42N0Ax
NzY5NzY0MjI4ghQQ37zkWap/3pQV9W91l1+fT9W0tTATBgNVHSUEDDAKBggrBgEF
BQcDATALBgNVHQ8EBAMCBaAwgZUGA1UdEQSBjTCBiocEwKgBQ4cECmAAAYIKa3Vi
ZXJuZXRlc4ISa3ViZXJuZXRlcy5kZWZhdWx0ghZrdWJlcm5ldGVzLmRlZmF1bHQu
c3Zjgh5rdWJlcm5ldGVzLmRlZmF1bHQuc3ZjLmNsdXN0ZXKCJGt1YmVybmV0ZXMu
ZGVmYXVsdC5zdmMuY2x1c3Rlci5sb2NhbDANBgkqhkiG9w0BAQsFAAOCAQEAKmBP
bjhZP4BaoUcoNRA7zcm4Tw7lZLNmNBfYVlzgI3GRuI6JEkdLVKWhXT/FGhAwScGm
p53OkBKvfFH7fvYxIPACWmtc+FjiFLNc7ADnIICZDkAweItN0N2DzufoiBrhv1ej
26w8MydP104YMO4jtKrrKeT5a3L4tpNuZYikMDI7m/dpabtTohTnp5iXnsckbX5N
JLfuvsx9itJU5IwzIc443BYRxxzFkl+H6kqoxAkvBacA3UxzQjaqnHnKv2lN+YYY
53oX9fKZeFTZgvD6XIl0rZzK2g8ClUIpGnD/s1WViw5Qkr+2KNI917nDjpkeRNeL
0SAwnsk8WVv/cpFkmg==
-----END CERTIFICATE-----
